target datalayout = "e-m:e-p270:32:32-p271:32:32-p272:64:64-i64:64-i128:128-f80:128-n8:16:32:64-S128"
target triple = "x86_64-pc-linux-gnu"

%"struct.OpenSubdiv::v3_6_0::Vtr::internal::Level::ETag" = type { i8 }

; Function Attrs: mustprogress nounwind uwtable
define linkonce_odr void @_ZN10OpenSubdiv6v3_6_03Vtr8internal5Level4ETagC2Eh(ptr noundef nonnull align 1 dereferenceable(1) %0, i8 noundef zeroext %1) unnamed_addr #0 comdat align 2 {
  %3 = alloca ptr, align 8
  %4 = alloca i8, align 1
  store ptr %0, ptr %3, align 8
  store i8 %1, ptr %4, align 1
  %5 = load ptr, ptr %3, align 8
  call void @llvm.memcpy.p0.p0.i64(ptr align 1 %5, ptr align 1 %4, i64 1, i1 false)
  ret void
}

; Function Attrs: mustprogress nounwind uwtable
define linkonce_odr noundef zeroext i8 @_ZNK10OpenSubdiv6v3_6_03Vtr8internal5Level4ETag7getBitsEv(ptr noundef nonnull align 1 dereferenceable(1) %0) #0 comdat align 2 {
  %2 = alloca ptr, align 8
  %3 = alloca i8, align 1
  store ptr %0, ptr %2, align 8
  %4 = load ptr, ptr %2, align 8
  call void @llvm.memcpy.p0.p0.i64(ptr align 1 %3, ptr align 1 %4, i64 1, i1 false)
  %5 = load i8, ptr %3, align 1
  ret i8 %5
}

; Function Attrs: mustprogress uwtable
define i8 @_ZN10OpenSubdiv6v3_6_03Vtr8internal5Level4ETag9BitwiseOrEPKS4_i(ptr noundef %0, i32 noundef %1) #3 align 2 {
  %3 = alloca %"struct.OpenSubdiv::v3_6_0::Vtr::internal::Level::ETag", align 1
  %4 = alloca ptr, align 8
  %5 = alloca i32, align 4
  %6 = alloca i8, align 1
  %7 = alloca i32, align 4
  store ptr %0, ptr %4, align 8
  store i32 %1, ptr %5, align 4
  %8 = load ptr, ptr %4, align 8
  %9 = getelementptr inbounds %"struct.OpenSubdiv::v3_6_0::Vtr::internal::Level::ETag", ptr %8, i64 0
  %10 = call noundef zeroext i8 @_ZNK10OpenSubdiv6v3_6_03Vtr8internal5Level4ETag7getBitsEv(ptr noundef nonnull align 1 dereferenceable(1) %9)
  store i8 %10, ptr %6, align 1
  store i32 1, ptr %7, align 4
  br label %11

11:                                               ; preds = %26, %2
  %12 = load i32, ptr %7, align 4
  %13 = load i32, ptr %5, align 4
  %14 = icmp slt i32 %12, %13
  br i1 %14, label %15, label %29

15:                                               ; preds = %11
  %16 = load ptr, ptr %4, align 8
  %17 = load i32, ptr %7, align 4
  %18 = sext i32 %17 to i64
  %19 = getelementptr inbounds %"struct.OpenSubdiv::v3_6_0::Vtr::internal::Level::ETag", ptr %16, i64 %18
  %20 = call noundef zeroext i8 @_ZNK10OpenSubdiv6v3_6_03Vtr8internal5Level4ETag7getBitsEv(ptr noundef nonnull align 1 dereferenceable(1) %19)
  %21 = zext i8 %20 to i32
  %22 = load i8, ptr %6, align 1
  %23 = zext i8 %22 to i32
  %24 = or i32 %23, %21
  %25 = trunc i32 %24 to i8
  store i8 %25, ptr %6, align 1
  br label %26

26:                                               ; preds = %15
  %27 = load i32, ptr %7, align 4
  %28 = add nsw i32 %27, 1
  store i32 %28, ptr %7, align 4
  br label %11, !llvm.loop !46

29:                                               ; preds = %11
  %30 = load i8, ptr %6, align 1
  call void @_ZN10OpenSubdiv6v3_6_03Vtr8internal5Level4ETagC2Eh(ptr noundef nonnull align 1 dereferenceable(1) %3, i8 noundef zeroext %30)
  %31 = getelementptr inbounds nuw %"struct.OpenSubdiv::v3_6_0::Vtr::internal::Level::ETag", ptr %3, i32 0, i32 0
  %32 = load i8, ptr %31, align 1
  ret i8 %32
}